; Function Attrs: mustprogress nounwind uwtable
define hidden void @_ZN9CsvWriterD2Ev(ptr noundef nonnull align 8 dereferenceable(545) %0) unnamed_addr #4 align 2 personality ptr @__gxx_personality_v0 {
  %2 = invoke noundef nonnull align 8 dereferenceable(8) ptr @_ZNSo5flushEv(ptr noundef nonnull align 8 dereferenceable(8) %0)
          to label %3 unwind label %27

3:                                                ; preds = %1
  %4 = getelementptr inbounds nuw i8, ptr %0, i64 8
  %5 = invoke noundef ptr @_ZNSt13basic_filebufIcSt11char_traitsIcEE5closeEv(ptr noundef nonnull align 8 dereferenceable(240) %4)
          to label %.noexc unwind label %27

.noexc:                                           ; preds = %3
  %.not.i = icmp eq ptr %5, null
  br i1 %.not.i, label %6, label %_ZNSt14basic_ofstreamIcSt11char_traitsIcEE5closeEv.exit

6:                                                ; preds = %.noexc
  %7 = load ptr, ptr %0, align 8, !tbaa !15
  %8 = getelementptr i8, ptr %7, i64 -24
  %9 = load i64, ptr %8, align 8
  %10 = getelementptr inbounds i8, ptr %0, i64 %9
  %11 = getelementptr inbounds nuw i8, ptr %10, i64 32
  %12 = load i32, ptr %11, align 8, !tbaa !17
  %13 = or i32 %12, 4
  invoke void @_ZNSt9basic_iosIcSt11char_traitsIcEE5clearESt12_Ios_Iostate(ptr noundef nonnull align 8 dereferenceable(264) %10, i32 noundef %13)
          to label %_ZNSt14basic_ofstreamIcSt11char_traitsIcEE5closeEv.exit unwind label %27

_ZNSt14basic_ofstreamIcSt11char_traitsIcEE5closeEv.exit: ; preds = %.noexc, %6
  %14 = getelementptr inbounds nuw i8, ptr %0, i64 512
  %15 = load ptr, ptr %14, align 8, !tbaa !14
  %16 = getelementptr inbounds nuw i8, ptr %0, i64 528
  %17 = icmp eq ptr %15, %16
  br i1 %17, label %_ZNKSt7__cxx1112basic_stringIcSt11char_traitsIcESaIcEE11_M_is_localEv.exit.thread.i.i, label %_ZNKSt7__cxx1112basic_stringIcSt11char_traitsIcESaIcEE11_M_is_localEv.exit.i.i

_ZNKSt7__cxx1112basic_stringIcSt11char_traitsIcESaIcEE11_M_is_localEv.exit.thread.i.i: ; preds = %_ZNSt14basic_ofstreamIcSt11char_traitsIcEE5closeEv.exit
  %18 = getelementptr inbounds nuw i8, ptr %0, i64 520
  %19 = load i64, ptr %18, align 8, !tbaa !10
  %20 = icmp ult i64 %19, 16
  tail call void @llvm.assume(i1 %20)
  br label %_ZNSt7__cxx1112basic_stringIcSt11char_traitsIcESaIcEED2Ev.exit

_ZNKSt7__cxx1112basic_stringIcSt11char_traitsIcESaIcEE11_M_is_localEv.exit.i.i: ; preds = %_ZNSt14basic_ofstreamIcSt11char_traitsIcEE5closeEv.exit
  tail call void @_ZdlPv(ptr noundef %15) #10
  br label %_ZNSt7__cxx1112basic_stringIcSt11char_traitsIcESaIcEED2Ev.exit

_ZNSt7__cxx1112basic_stringIcSt11char_traitsIcESaIcEED2Ev.exit: ; preds = %_ZNKSt7__cxx1112basic_stringIcSt11char_traitsIcESaIcEE11_M_is_localEv.exit.thread.i.i, %_ZNKSt7__cxx1112basic_stringIcSt11char_traitsIcESaIcEE11_M_is_localEv.exit.i.i
  %21 = load ptr, ptr @_ZTTSt14basic_ofstreamIcSt11char_traitsIcEE, align 8
  store ptr %21, ptr %0, align 8, !tbaa !15
  %22 = load ptr, ptr getelementptr inbounds nuw (i8, ptr @_ZTTSt14basic_ofstreamIcSt11char_traitsIcEE, i64 24), align 8
  %23 = getelementptr i8, ptr %21, i64 -24
  %24 = load i64, ptr %23, align 8
  %25 = getelementptr inbounds i8, ptr %0, i64 %24
  store ptr %22, ptr %25, align 8, !tbaa !15
  tail call void @_ZNSt13basic_filebufIcSt11char_traitsIcEED2Ev(ptr noundef nonnull align 8 dereferenceable(240) %4) #11
  %26 = getelementptr inbounds nuw i8, ptr %0, i64 248
  tail call void @_ZNSt8ios_baseD2Ev(ptr noundef nonnull align 8 dereferenceable(264) %26) #11
  ret void

27:                                               ; preds = %6, %3, %1
  %28 = landingpad { ptr, i32 }
          filter [0 x ptr] zeroinitializer
  %29 = extractvalue { ptr, i32 } %28, 0
  %30 = getelementptr inbounds nuw i8, ptr %0, i64 512
  tail call void @_ZNSt7__cxx1112basic_stringIcSt11char_traitsIcESaIcEED2Ev(ptr noundef nonnull align 8 dereferenceable(32) %30) #11
  tail call void @_ZNSt14basic_ofstreamIcSt11char_traitsIcEED1Ev(ptr noundef nonnull align 8 dereferenceable(248) %0) #11
  tail call void @__cxa_call_unexpected(ptr %29) #12
  unreachable
}